; Function Attrs: mustprogress uwtable
define i32 @ucasemap_utf8FoldCase_77(ptr noundef readonly captures(none) %0, ptr noundef %1, i32 noundef %2, ptr noundef %3, i32 noundef %4, ptr noundef %5) local_unnamed_addr #1 personality ptr @__gxx_personality_v0 {
  %7 = alloca %"class.icu_77::CheckedArrayByteSink", align 8
  %8 = getelementptr inbounds nuw i8, ptr %0, i64 44
  %9 = load i32, ptr %8, align 4, !tbaa !19
  %10 = load i32, ptr %5, align 4, !tbaa !13
  %11 = icmp slt i32 %10, 1
  br i1 %11, label %12, label %_Z19ucasemap_mapUTF8_77ijPN6icu_7713BreakIteratorEPciPKciPFvijS1_PKhiRNS_8ByteSinkEPNS_5EditsER10UErrorCodeESA_SC_.exit

12:                                               ; preds = %6
  %13 = icmp slt i32 %2, 0
  br i1 %13, label %21, label %14

14:                                               ; preds = %12
  %15 = icmp eq ptr %1, null
  %16 = icmp ne i32 %2, 0
  %or.cond.i = and i1 %15, %16
  br i1 %or.cond.i, label %21, label %17

17:                                               ; preds = %14
  %18 = icmp eq ptr %3, null
  %19 = icmp ne i32 %4, 0
  %or.cond3.i = and i1 %18, %19
  %20 = icmp slt i32 %4, -1
  %or.cond5.i = or i1 %20, %or.cond3.i
  br i1 %or.cond5.i, label %21, label %22

21:                                               ; preds = %17, %14, %12
  store i32 1, ptr %5, align 4, !tbaa !13
  br label %_Z19ucasemap_mapUTF8_77ijPN6icu_7713BreakIteratorEPciPKciPFvijS1_PKhiRNS_8ByteSinkEPNS_5EditsER10UErrorCodeESA_SC_.exit

22:                                               ; preds = %17
  %23 = icmp eq i32 %4, -1
  br i1 %23, label %24, label %27

24:                                               ; preds = %22
  %25 = tail call i64 @strlen(ptr noundef nonnull dereferenceable(1) %3) #20
  %26 = trunc i64 %25 to i32
  br label %27

27:                                               ; preds = %24, %22
  %.056.i = phi i32 [ %26, %24 ], [ %4, %22 ]
  br i1 %15, label %37, label %28

28:                                               ; preds = %27
  %.not33.i = icmp uge ptr %3, %1
  %29 = zext nneg i32 %2 to i64
  %30 = getelementptr inbounds nuw i8, ptr %1, i64 %29
  %31 = icmp ult ptr %3, %30
  %or.cond38.i = select i1 %.not33.i, i1 %31, i1 false
  br i1 %or.cond38.i, label %36, label %32

32:                                               ; preds = %28
  %.not34.i = icmp uge ptr %1, %3
  %33 = sext i32 %.056.i to i64
  %34 = getelementptr inbounds i8, ptr %3, i64 %33
  %35 = icmp ult ptr %1, %34
  %or.cond42.i = select i1 %.not34.i, i1 %35, i1 false
  br i1 %or.cond42.i, label %36, label %37

36:                                               ; preds = %32, %28
  store i32 1, ptr %5, align 4, !tbaa !13
  br label %_Z19ucasemap_mapUTF8_77ijPN6icu_7713BreakIteratorEPciPKciPFvijS1_PKhiRNS_8ByteSinkEPNS_5EditsER10UErrorCodeESA_SC_.exit

37:                                               ; preds = %32, %27
  call void @llvm.lifetime.start.p0(i64 32, ptr nonnull %7) #17
  call void @_ZN6icu_7720CheckedArrayByteSinkC1EPci(ptr noundef nonnull align 8 dereferenceable(29) %7, ptr noundef %1, i32 noundef range(i32 0, -2147483648) %2)
  invoke fastcc void @_ZN12_GLOBAL__N_17toLowerEijPKhP12UCaseContextiiRN6icu_778ByteSinkEPNS4_5EditsER10UErrorCode(i32 noundef -1, i32 noundef %9, ptr noundef %3, ptr noundef null, i32 noundef 0, i32 noundef %.056.i, ptr noundef nonnull align 8 dereferenceable(8) %7, ptr noundef null, ptr noundef nonnull align 4 dereferenceable(4) %5)
          to label %"_ZZ19ucasemap_mapUTF8_77ijPN6icu_7713BreakIteratorEPciPKciPFvijS1_PKhiRNS_8ByteSinkEPNS_5EditsER10UErrorCodeESA_SC_ENK3$_0clES8_SC_.exit.i.i" unwind label %40

"_ZZ19ucasemap_mapUTF8_77ijPN6icu_7713BreakIteratorEPciPKciPFvijS1_PKhiRNS_8ByteSinkEPNS_5EditsER10UErrorCodeESA_SC_ENK3$_0clES8_SC_.exit.i.i": ; preds = %37
  %38 = load i32, ptr %5, align 4, !tbaa !13
  %39 = icmp slt i32 %38, 1
  br i1 %39, label %42, label %"_ZN6icu_7712ByteSinkUtil28viaByteSinkToTerminatedCharsIZ19ucasemap_mapUTF8_77ijPNS_13BreakIteratorEPciPKciPFvijS3_PKhiRNS_8ByteSinkEPNS_5EditsER10UErrorCodeESC_SE_E3$_0vEEiS4_iOT_SE_.exit.i"

40:                                               ; preds = %37
  %41 = landingpad { ptr, i32 }
          cleanup
  br label %52

42:                                               ; preds = %"_ZZ19ucasemap_mapUTF8_77ijPN6icu_7713BreakIteratorEPciPKciPFvijS1_PKhiRNS_8ByteSinkEPNS_5EditsER10UErrorCodeESA_SC_ENK3$_0clES8_SC_.exit.i.i"
  %43 = getelementptr inbounds nuw i8, ptr %7, i64 24
  %44 = load i32, ptr %43, align 8, !tbaa !49
  %45 = getelementptr inbounds nuw i8, ptr %7, i64 28
  %46 = load i8, ptr %45, align 4, !tbaa !52
  %.not17.i.i = icmp eq i8 %46, 0
  br i1 %.not17.i.i, label %50, label %47

47:                                               ; preds = %42
  store i32 15, ptr %5, align 4, !tbaa !13
  br label %"_ZN6icu_7712ByteSinkUtil28viaByteSinkToTerminatedCharsIZ19ucasemap_mapUTF8_77ijPNS_13BreakIteratorEPciPKciPFvijS3_PKhiRNS_8ByteSinkEPNS_5EditsER10UErrorCodeESC_SE_E3$_0vEEiS4_iOT_SE_.exit.i"

48:                                               ; preds = %50
  %49 = landingpad { ptr, i32 }
          cleanup
  br label %52

50:                                               ; preds = %42
  %51 = invoke i32 @u_terminateChars_77(ptr noundef %1, i32 noundef range(i32 0, -2147483648) %2, i32 noundef %44, ptr noundef nonnull align 4 dereferenceable(4) %5)
          to label %"_ZN6icu_7712ByteSinkUtil28viaByteSinkToTerminatedCharsIZ19ucasemap_mapUTF8_77ijPNS_13BreakIteratorEPciPKciPFvijS3_PKhiRNS_8ByteSinkEPNS_5EditsER10UErrorCodeESC_SE_E3$_0vEEiS4_iOT_SE_.exit.i" unwind label %48

52:                                               ; preds = %48, %40
  %.pn.i.i = phi { ptr, i32 } [ %49, %48 ], [ %41, %40 ]
  call void @_ZN6icu_7720CheckedArrayByteSinkD1Ev(ptr noundef nonnull align 8 dereferenceable(29) %7) #17
  call void @llvm.lifetime.end.p0(i64 32, ptr nonnull %7) #17
  resume { ptr, i32 } %.pn.i.i

"_ZN6icu_7712ByteSinkUtil28viaByteSinkToTerminatedCharsIZ19ucasemap_mapUTF8_77ijPNS_13BreakIteratorEPciPKciPFvijS3_PKhiRNS_8ByteSinkEPNS_5EditsER10UErrorCodeESC_SE_E3$_0vEEiS4_iOT_SE_.exit.i": ; preds = %50, %47, %"_ZZ19ucasemap_mapUTF8_77ijPN6icu_7713BreakIteratorEPciPKciPFvijS1_PKhiRNS_8ByteSinkEPNS_5EditsER10UErrorCodeESA_SC_ENK3$_0clES8_SC_.exit.i.i"
  %.1.i.i = phi i32 [ 0, %"_ZZ19ucasemap_mapUTF8_77ijPN6icu_7713BreakIteratorEPciPKciPFvijS1_PKhiRNS_8ByteSinkEPNS_5EditsER10UErrorCodeESA_SC_ENK3$_0clES8_SC_.exit.i.i" ], [ %44, %47 ], [ %51, %50 ]
  call void @_ZN6icu_7720CheckedArrayByteSinkD1Ev(ptr noundef nonnull align 8 dereferenceable(29) %7) #17
  call void @llvm.lifetime.end.p0(i64 32, ptr nonnull %7) #17
  br label %_Z19ucasemap_mapUTF8_77ijPN6icu_7713BreakIteratorEPciPKciPFvijS1_PKhiRNS_8ByteSinkEPNS_5EditsER10UErrorCodeESA_SC_.exit

_Z19ucasemap_mapUTF8_77ijPN6icu_7713BreakIteratorEPciPKciPFvijS1_PKhiRNS_8ByteSinkEPNS_5EditsER10UErrorCodeESA_SC_.exit: ; preds = %6, %21, %36, %"_ZN6icu_7712ByteSinkUtil28viaByteSinkToTerminatedCharsIZ19ucasemap_mapUTF8_77ijPNS_13BreakIteratorEPciPKciPFvijS3_PKhiRNS_8ByteSinkEPNS_5EditsER10UErrorCodeESC_SE_E3$_0vEEiS4_iOT_SE_.exit.i"
  %.0.i = phi i32 [ 0, %21 ], [ 0, %36 ], [ 0, %6 ], [ %.1.i.i, %"_ZN6icu_7712ByteSinkUtil28viaByteSinkToTerminatedCharsIZ19ucasemap_mapUTF8_77ijPNS_13BreakIteratorEPciPKciPFvijS3_PKhiRNS_8ByteSinkEPNS_5EditsER10UErrorCodeESC_SE_E3$_0vEEiS4_iOT_SE_.exit.i" ]
  ret i32 %.0.i
}